target datalayout = "e-m:e-p270:32:32-p271:32:32-p272:64:64-i64:64-i128:128-f80:128-n8:16:32:64-S128"
target triple = "x86_64-pc-linux-gnu"

%struct.H5C_class_t = type { i32, ptr, i32, i32, ptr, ptr, ptr, ptr, ptr, ptr, ptr, ptr, ptr, ptr }
%struct.H5C_cache_entry_t = type { ptr, i64, i64, ptr, i8, ptr, i8, i8, i8, i8, i32, i8, i8, i8, i8, i8, i32, ptr, i32, i32, i32, i32, i32, i8, i8, ptr, ptr, ptr, ptr, ptr, ptr, i8, i32, i8, i64, ptr, i64, i64, i32, i8, i32, i32, i8, ptr, ptr, ptr }
%struct.H5SM_index_header_t = type { i32, i64, i64, i64, i64, i32, i64, i64, i64 }
%struct.H5O_mesg_loc_t = type { i32, i64 }
%struct.H5SM_sohm_t = type { i32, i32, i32, %union.anon.0 }
%union.anon.0 = type { %struct.H5O_mesg_loc_t }
%struct.H5SM_list_t = type { %struct.H5C_cache_entry_t, ptr, ptr }

@H5SM_init_g = global i8 0, align 1
@H5_H5SM_list_t_reg_free_list = global { i8, [3 x i8], i32, i32, [4 x i8], ptr, i64, ptr } { i8 0, [3 x i8] zeroinitializer, i32 0, i32 0, [4 x i8] zeroinitializer, ptr @.str.2, i64 264, ptr null }, align 8
@H5_H5SM_sohm_t_arr_free_list = global { i8, [3 x i8], i32, i64, ptr, i32, [4 x i8], i64, i64, ptr } { i8 0, [3 x i8] zeroinitializer, i32 0, i64 0, ptr @.str.3, i32 5001, [4 x i8] zeroinitializer, i64 0, i64 32, ptr null }, align 8
@H5_libterm_g = external global i8, align 1
@.str.4 = private unnamed_addr constant [98 x i8] c"generated/home/dtcxzyw/WorkSpace/Projects/compilers/llvm-opt-benchmark/bench/hdf5/hdf5/src/H5SM.c\00", align 1
@H5E_SOHM_g = external global i64, align 8
@H5E_CANTALLOC_g = external global i64, align 8
@H5E_CANTINS_g = external global i64, align 8
@H5AC_SOHM_LIST = external constant [1 x %struct.H5C_class_t], align 16
@__func__.H5SM__create_list = private unnamed_addr constant [18 x i8] c"H5SM__create_list\00", align 1
@.str.97 = private unnamed_addr constant [37 x i8] c"file allocation failed for SOHM list\00", align 1
@.str.98 = private unnamed_addr constant [29 x i8] c"can't add SOHM list to cache\00", align 1

; Function Attrs: nounwind uwtable
define internal i64 @H5SM__create_list(ptr noundef %0, ptr noundef %1) #0 {
  %3 = alloca ptr, align 8
  %4 = alloca ptr, align 8
  %5 = alloca ptr, align 8
  %6 = alloca i64, align 8
  %7 = alloca i64, align 8
  %8 = alloca i64, align 8
  %9 = alloca i64, align 8
  %10 = alloca i8, align 1
  store ptr %0, ptr %3, align 8, !tbaa !3
  store ptr %1, ptr %4, align 8, !tbaa !57
  call void @llvm.lifetime.start.p0(i64 8, ptr %5) #8
  store ptr null, ptr %5, align 8, !tbaa !57
  call void @llvm.lifetime.start.p0(i64 8, ptr %6) #8
  call void @llvm.lifetime.start.p0(i64 8, ptr %7) #8
  call void @llvm.lifetime.start.p0(i64 8, ptr %8) #8
  store i64 -1, ptr %8, align 8, !tbaa !16
  call void @llvm.lifetime.start.p0(i64 8, ptr %9) #8
  store i64 -1, ptr %9, align 8, !tbaa !16
  call void @llvm.lifetime.start.p0(i64 1, ptr %10) #8
  store i8 0, ptr %10, align 1, !tbaa !18
  %11 = load i8, ptr @H5SM_init_g, align 1, !tbaa !18, !range !20, !noundef !21
  %12 = trunc i8 %11 to i1
  br i1 %12, label %17, label %13

13:                                               ; preds = %2
  %14 = load i8, ptr @H5_libterm_g, align 1, !tbaa !18, !range !20, !noundef !21
  %15 = trunc i8 %14 to i1
  %16 = xor i1 %15, true
  br label %17

17:                                               ; preds = %13, %2
  %18 = phi i1 [ true, %2 ], [ %16, %13 ]
  %19 = xor i1 %18, true
  %20 = xor i1 %19, true
  %21 = zext i1 %20 to i32
  %22 = sext i32 %21 to i64
  %23 = call i64 @llvm.expect.i64(i64 %22, i64 1)
  %24 = icmp ne i64 %23, 0
  br i1 %24, label %25, label %179

25:                                               ; preds = %17
  %26 = load ptr, ptr %4, align 8, !tbaa !57
  %27 = getelementptr inbounds nuw %struct.H5SM_index_header_t, ptr %26, i32 0, i32 2
  %28 = load i64, ptr %27, align 8, !tbaa !37
  store i64 %28, ptr %7, align 8, !tbaa !16
  %29 = call noalias ptr @H5FL_reg_calloc(ptr noundef @H5_H5SM_list_t_reg_free_list)
  store ptr %29, ptr %5, align 8, !tbaa !57
  %30 = icmp eq ptr null, %29
  br i1 %30, label %31, label %50

31:                                               ; preds = %25
  br label %32

32:                                               ; preds = %31
  br label %33

33:                                               ; preds = %32
  br label %34

34:                                               ; preds = %33
  %35 = load i64, ptr @H5E_SOHM_g, align 8, !tbaa !16
  %36 = load i64, ptr @H5E_CANTALLOC_g, align 8, !tbaa !16
  %37 = call i32 (ptr, ptr, i32, i64, i64, ptr, ...) @H5E_printf_stack(ptr noundef @.str.4, ptr noundef @__func__.H5SM__create_list, i32 noundef 628, i64 noundef %35, i64 noundef %36, ptr noundef @.str.97)
  br label %38

38:                                               ; preds = %34
  br label %39

39:                                               ; preds = %38
  store i8 1, ptr %10, align 1, !tbaa !18
  %40 = load i8, ptr %10, align 1, !tbaa !18, !range !20, !noundef !21
  %41 = trunc i8 %40 to i1
  %42 = zext i1 %41 to i8
  store i8 %42, ptr %10, align 1, !tbaa !18
  br label %43

43:                                               ; preds = %39
  br label %44

44:                                               ; preds = %43
  br label %45

45:                                               ; preds = %44
  store i64 -1, ptr %9, align 8, !tbaa !16
  br label %146

46:                                               ; No predecessors!
  br label %47

47:                                               ; preds = %46
  br label %48

48:                                               ; preds = %47
  br label %49

49:                                               ; preds = %48
  br label %50

50:                                               ; preds = %49, %25
  %51 = load i64, ptr %7, align 8, !tbaa !16
  %52 = call noalias ptr @H5FL_arr_calloc(ptr noundef @H5_H5SM_sohm_t_arr_free_list, i64 noundef %51)
  %53 = load ptr, ptr %5, align 8, !tbaa !57
  %54 = getelementptr inbounds nuw %struct.H5SM_list_t, ptr %53, i32 0, i32 2
  store ptr %52, ptr %54, align 8, !tbaa !97
  %55 = icmp eq ptr null, %52
  br i1 %55, label %56, label %75

56:                                               ; preds = %50
  br label %57

57:                                               ; preds = %56
  br label %58

58:                                               ; preds = %57
  br label %59

59:                                               ; preds = %58
  %60 = load i64, ptr @H5E_SOHM_g, align 8, !tbaa !16
  %61 = load i64, ptr @H5E_CANTALLOC_g, align 8, !tbaa !16
  %62 = call i32 (ptr, ptr, i32, i64, i64, ptr, ...) @H5E_printf_stack(ptr noundef @.str.4, ptr noundef @__func__.H5SM__create_list, i32 noundef 630, i64 noundef %60, i64 noundef %61, ptr noundef @.str.97)
  br label %63

63:                                               ; preds = %59
  br label %64

64:                                               ; preds = %63
  store i8 1, ptr %10, align 1, !tbaa !18
  %65 = load i8, ptr %10, align 1, !tbaa !18, !range !20, !noundef !21
  %66 = trunc i8 %65 to i1
  %67 = zext i1 %66 to i8
  store i8 %67, ptr %10, align 1, !tbaa !18
  br label %68

68:                                               ; preds = %64
  br label %69

69:                                               ; preds = %68
  br label %70

70:                                               ; preds = %69
  store i64 -1, ptr %9, align 8, !tbaa !16
  br label %146

71:                                               ; No predecessors!
  br label %72

72:                                               ; preds = %71
  br label %73

73:                                               ; preds = %72
  br label %74

74:                                               ; preds = %73
  br label %75

75:                                               ; preds = %74, %50
  store i64 0, ptr %6, align 8, !tbaa !16
  br label %76

76:                                               ; preds = %87, %75
  %77 = load i64, ptr %6, align 8, !tbaa !16
  %78 = load i64, ptr %7, align 8, !tbaa !16
  %79 = icmp ult i64 %77, %78
  br i1 %79, label %80, label %90

80:                                               ; preds = %76
  %81 = load ptr, ptr %5, align 8, !tbaa !57
  %82 = getelementptr inbounds nuw %struct.H5SM_list_t, ptr %81, i32 0, i32 2
  %83 = load ptr, ptr %82, align 8, !tbaa !97
  %84 = load i64, ptr %6, align 8, !tbaa !16
  %85 = getelementptr inbounds nuw %struct.H5SM_sohm_t, ptr %83, i64 %84
  %86 = getelementptr inbounds nuw %struct.H5SM_sohm_t, ptr %85, i32 0, i32 0
  store i32 -1, ptr %86, align 8, !tbaa !99
  br label %87

87:                                               ; preds = %80
  %88 = load i64, ptr %6, align 8, !tbaa !16
  %89 = add i64 %88, 1
  store i64 %89, ptr %6, align 8, !tbaa !16
  br label %76, !llvm.loop !139

90:                                               ; preds = %76
  %91 = load ptr, ptr %4, align 8, !tbaa !57
  %92 = load ptr, ptr %5, align 8, !tbaa !57
  %93 = getelementptr inbounds nuw %struct.H5SM_list_t, ptr %92, i32 0, i32 1
  store ptr %91, ptr %93, align 8, !tbaa !126
  %94 = load ptr, ptr %3, align 8, !tbaa !3
  %95 = load ptr, ptr %4, align 8, !tbaa !57
  %96 = getelementptr inbounds nuw %struct.H5SM_index_header_t, ptr %95, i32 0, i32 8
  %97 = load i64, ptr %96, align 8, !tbaa !44
  %98 = call i64 @H5MF_alloc(ptr noundef %94, i32 noundef 2, i64 noundef %97)
  store i64 %98, ptr %8, align 8, !tbaa !16
  %99 = icmp eq i64 -1, %98
  br i1 %99, label %100, label %119

100:                                              ; preds = %90
  br label %101

101:                                              ; preds = %100
  br label %102

102:                                              ; preds = %101
  br label %103

103:                                              ; preds = %102
  %104 = load i64, ptr @H5E_SOHM_g, align 8, !tbaa !16
  %105 = load i64, ptr @H5E_CANTALLOC_g, align 8, !tbaa !16
  %106 = call i32 (ptr, ptr, i32, i64, i64, ptr, ...) @H5E_printf_stack(ptr noundef @.str.4, ptr noundef @__func__.H5SM__create_list, i32 noundef 641, i64 noundef %104, i64 noundef %105, ptr noundef @.str.97)
  br label %107

107:                                              ; preds = %103
  br label %108

108:                                              ; preds = %107
  store i8 1, ptr %10, align 1, !tbaa !18
  %109 = load i8, ptr %10, align 1, !tbaa !18, !range !20, !noundef !21
  %110 = trunc i8 %109 to i1
  %111 = zext i1 %110 to i8
  store i8 %111, ptr %10, align 1, !tbaa !18
  br label %112

112:                                              ; preds = %108
  br label %113

113:                                              ; preds = %112
  br label %114

114:                                              ; preds = %113
  store i64 -1, ptr %9, align 8, !tbaa !16
  br label %146

115:                                              ; No predecessors!
  br label %116

116:                                              ; preds = %115
  br label %117

117:                                              ; preds = %116
  br label %118

118:                                              ; preds = %117
  br label %119

119:                                              ; preds = %118, %90
  %120 = load ptr, ptr %3, align 8, !tbaa !3
  %121 = load i64, ptr %8, align 8, !tbaa !16
  %122 = load ptr, ptr %5, align 8, !tbaa !57
  %123 = call i32 @H5AC_insert_entry(ptr noundef %120, ptr noundef @H5AC_SOHM_LIST, i64 noundef %121, ptr noundef %122, i32 noundef 0)
  %124 = icmp slt i32 %123, 0
  br i1 %124, label %125, label %144

125:                                              ; preds = %119
  br label %126

126:                                              ; preds = %125
  br label %127

127:                                              ; preds = %126
  br label %128

128:                                              ; preds = %127
  %129 = load i64, ptr @H5E_SOHM_g, align 8, !tbaa !16
  %130 = load i64, ptr @H5E_CANTINS_g, align 8, !tbaa !16
  %131 = call i32 (ptr, ptr, i32, i64, i64, ptr, ...) @H5E_printf_stack(ptr noundef @.str.4, ptr noundef @__func__.H5SM__create_list, i32 noundef 645, i64 noundef %129, i64 noundef %130, ptr noundef @.str.98)
  br label %132

132:                                              ; preds = %128
  br label %133

133:                                              ; preds = %132
  store i8 1, ptr %10, align 1, !tbaa !18
  %134 = load i8, ptr %10, align 1, !tbaa !18, !range !20, !noundef !21
  %135 = trunc i8 %134 to i1
  %136 = zext i1 %135 to i8
  store i8 %136, ptr %10, align 1, !tbaa !18
  br label %137

137:                                              ; preds = %133
  br label %138

138:                                              ; preds = %137
  br label %139

139:                                              ; preds = %138
  store i64 -1, ptr %9, align 8, !tbaa !16
  br label %146

140:                                              ; No predecessors!
  br label %141

141:                                              ; preds = %140
  br label %142

142:                                              ; preds = %141
  br label %143

143:                                              ; preds = %142
  br label %144

144:                                              ; preds = %143, %119
  %145 = load i64, ptr %8, align 8, !tbaa !16
  store i64 %145, ptr %9, align 8, !tbaa !16
  br label %146

146:                                              ; preds = %144, %139, %114, %70, %45
  %147 = load i64, ptr %9, align 8, !tbaa !16
  %148 = icmp eq i64 %147, -1
  br i1 %148, label %149, label %178

149:                                              ; preds = %146
  %150 = load ptr, ptr %5, align 8, !tbaa !57
  %151 = icmp ne ptr %150, null
  br i1 %151, label %152, label %167

152:                                              ; preds = %149
  %153 = load ptr, ptr %5, align 8, !tbaa !57
  %154 = getelementptr inbounds nuw %struct.H5SM_list_t, ptr %153, i32 0, i32 2
  %155 = load ptr, ptr %154, align 8, !tbaa !97
  %156 = icmp ne ptr %155, null
  br i1 %156, label %157, label %164

157:                                              ; preds = %152
  %158 = load ptr, ptr %5, align 8, !tbaa !57
  %159 = getelementptr inbounds nuw %struct.H5SM_list_t, ptr %158, i32 0, i32 2
  %160 = load ptr, ptr %159, align 8, !tbaa !97
  %161 = call ptr @H5FL_arr_free(ptr noundef @H5_H5SM_sohm_t_arr_free_list, ptr noundef %160)
  %162 = load ptr, ptr %5, align 8, !tbaa !57
  %163 = getelementptr inbounds nuw %struct.H5SM_list_t, ptr %162, i32 0, i32 2
  store ptr %161, ptr %163, align 8, !tbaa !97
  br label %164

164:                                              ; preds = %157, %152
  %165 = load ptr, ptr %5, align 8, !tbaa !57
  %166 = call ptr @H5FL_reg_free(ptr noundef @H5_H5SM_list_t_reg_free_list, ptr noundef %165)
  store ptr %166, ptr %5, align 8, !tbaa !57
  br label %167

167:                                              ; preds = %164, %149
  %168 = load i64, ptr %8, align 8, !tbaa !16
  %169 = icmp ne i64 %168, -1
  br i1 %169, label %170, label %177

170:                                              ; preds = %167
  %171 = load ptr, ptr %3, align 8, !tbaa !3
  %172 = load i64, ptr %8, align 8, !tbaa !16
  %173 = load ptr, ptr %4, align 8, !tbaa !57
  %174 = getelementptr inbounds nuw %struct.H5SM_index_header_t, ptr %173, i32 0, i32 8
  %175 = load i64, ptr %174, align 8, !tbaa !44
  %176 = call i32 @H5MF_xfree(ptr noundef %171, i32 noundef 2, i64 noundef %172, i64 noundef %175)
  br label %177

177:                                              ; preds = %170, %167
  br label %178

178:                                              ; preds = %177, %146
  br label %179

179:                                              ; preds = %178, %17
  %180 = load i64, ptr %9, align 8, !tbaa !16
  call void @llvm.lifetime.end.p0(i64 1, ptr %10) #8
  call void @llvm.lifetime.end.p0(i64 8, ptr %9) #8
  call void @llvm.lifetime.end.p0(i64 8, ptr %8) #8
  call void @llvm.lifetime.end.p0(i64 8, ptr %7) #8
  call void @llvm.lifetime.end.p0(i64 8, ptr %6) #8
  call void @llvm.lifetime.end.p0(i64 8, ptr %5) #8
  ret i64 %180
}