; Function Attrs: nounwind uwtable
define internal fastcc i64 @H5SM__create_list(ptr noundef %0, ptr noundef %1) unnamed_addr #0 {
  %3 = load i8, ptr @H5SM_init_g, align 1, !tbaa !9, !range !11, !noundef !12
  %4 = trunc nuw i8 %3 to i1
  %5 = load i8, ptr @H5_libterm_g, align 1, !range !11
  %6 = trunc nuw i8 %5 to i1
  %7 = xor i1 %6, true
  %8 = select i1 %4, i1 true, i1 %7
  br i1 %8, label %9, label %53, !prof !13

9:                                                ; preds = %2
  %10 = getelementptr inbounds nuw i8, ptr %1, i64 16
  %11 = load i64, ptr %10, align 8, !tbaa !31
  %12 = tail call noalias ptr @H5FL_reg_calloc(ptr noundef nonnull @H5_H5SM_list_t_reg_free_list) #11
  %13 = icmp eq ptr %12, null
  br i1 %13, label %.thread47, label %14

14:                                               ; preds = %9
  %15 = tail call noalias ptr @H5FL_arr_calloc(ptr noundef nonnull @H5_H5SM_sohm_t_arr_free_list, i64 noundef %11) #11
  %16 = getelementptr inbounds nuw i8, ptr %12, i64 256
  store ptr %15, ptr %16, align 8, !tbaa !86
  %17 = icmp eq ptr %15, null
  br i1 %17, label %18, label %.preheader

.preheader:                                       ; preds = %14
  %.not = icmp eq i64 %11, 0
  br i1 %.not, label %._crit_edge, label %.lr.ph

18:                                               ; preds = %14
  %19 = load i64, ptr @H5E_SOHM_g, align 8, !tbaa !7
  %20 = load i64, ptr @H5E_CANTALLOC_g, align 8, !tbaa !7
  %21 = tail call i32 (ptr, ptr, i32, i64, i64, ptr, ...) @H5E_printf_stack(ptr noundef nonnull @.str.4, ptr noundef nonnull @__func__.H5SM__create_list, i32 noundef 630, i64 noundef %19, i64 noundef %20, ptr noundef nonnull @.str.97) #11
  br label %43

.lr.ph:                                           ; preds = %.preheader, %.lr.ph
  %.03150 = phi i64 [ %23, %.lr.ph ], [ 0, %.preheader ]
  %22 = getelementptr inbounds nuw %struct.H5SM_sohm_t, ptr %15, i64 %.03150
  store i32 -1, ptr %22, align 8, !tbaa !87
  %23 = add nuw i64 %.03150, 1
  %exitcond.not = icmp eq i64 %23, %11
  br i1 %exitcond.not, label %._crit_edge, label %.lr.ph, !llvm.loop !119

._crit_edge:                                      ; preds = %.lr.ph, %.preheader
  %24 = getelementptr inbounds nuw i8, ptr %12, i64 248
  store ptr %1, ptr %24, align 8, !tbaa !84
  %25 = getelementptr inbounds nuw i8, ptr %1, i64 64
  %26 = load i64, ptr %25, align 8, !tbaa !36
  %27 = tail call i64 @H5MF_alloc(ptr noundef %0, i32 noundef 2, i64 noundef %26) #11
  %28 = icmp eq i64 %27, -1
  br i1 %28, label %29, label %33

29:                                               ; preds = %._crit_edge
  %30 = load i64, ptr @H5E_SOHM_g, align 8, !tbaa !7
  %31 = load i64, ptr @H5E_CANTALLOC_g, align 8, !tbaa !7
  %32 = tail call i32 (ptr, ptr, i32, i64, i64, ptr, ...) @H5E_printf_stack(ptr noundef nonnull @.str.4, ptr noundef nonnull @__func__.H5SM__create_list, i32 noundef 641, i64 noundef %30, i64 noundef %31, ptr noundef nonnull @.str.97) #11
  br label %43

33:                                               ; preds = %._crit_edge
  %34 = tail call i32 @H5AC_insert_entry(ptr noundef %0, ptr noundef nonnull @H5AC_SOHM_LIST, i64 noundef %27, ptr noundef nonnull %12, i32 noundef 0) #11
  %35 = icmp slt i32 %34, 0
  br i1 %35, label %36, label %53

36:                                               ; preds = %33
  %37 = load i64, ptr @H5E_SOHM_g, align 8, !tbaa !7
  %38 = load i64, ptr @H5E_CANTINS_g, align 8, !tbaa !7
  %39 = tail call i32 (ptr, ptr, i32, i64, i64, ptr, ...) @H5E_printf_stack(ptr noundef nonnull @.str.4, ptr noundef nonnull @__func__.H5SM__create_list, i32 noundef 645, i64 noundef %37, i64 noundef %38, ptr noundef nonnull @.str.98) #11
  br label %43

.thread47:                                        ; preds = %9
  %40 = load i64, ptr @H5E_SOHM_g, align 8, !tbaa !7
  %41 = load i64, ptr @H5E_CANTALLOC_g, align 8, !tbaa !7
  %42 = tail call i32 (ptr, ptr, i32, i64, i64, ptr, ...) @H5E_printf_stack(ptr noundef nonnull @.str.4, ptr noundef nonnull @__func__.H5SM__create_list, i32 noundef 628, i64 noundef %40, i64 noundef %41, ptr noundef nonnull @.str.97) #11
  br label %53

43:                                               ; preds = %18, %29, %36
  %.030.ph.ph = phi i64 [ -1, %18 ], [ -1, %29 ], [ %27, %36 ]
  %44 = load ptr, ptr %16, align 8, !tbaa !86
  %.not37 = icmp eq ptr %44, null
  br i1 %.not37, label %47, label %45

45:                                               ; preds = %43
  %46 = tail call ptr @H5FL_arr_free(ptr noundef nonnull @H5_H5SM_sohm_t_arr_free_list, ptr noundef nonnull %44) #11
  store ptr %46, ptr %16, align 8, !tbaa !86
  br label %47

47:                                               ; preds = %43, %45
  %48 = tail call ptr @H5FL_reg_free(ptr noundef nonnull @H5_H5SM_list_t_reg_free_list, ptr noundef nonnull %12) #11
  %.not38 = icmp eq i64 %.030.ph.ph, -1
  br i1 %.not38, label %53, label %49

49:                                               ; preds = %47
  %50 = getelementptr inbounds nuw i8, ptr %1, i64 64
  %51 = load i64, ptr %50, align 8, !tbaa !36
  %52 = tail call i32 @H5MF_xfree(ptr noundef %0, i32 noundef 2, i64 noundef %.030.ph.ph, i64 noundef %51) #11
  br label %53

53:                                               ; preds = %.thread47, %33, %49, %47, %2
  %.0 = phi i64 [ -1, %49 ], [ -1, %47 ], [ -1, %2 ], [ %27, %33 ], [ -1, %.thread47 ]
  ret i64 %.0
}